target datalayout = "e-m:e-p270:32:32-p271:32:32-p272:64:64-i64:64-i128:128-f80:128-n8:16:32:64-S128"
target triple = "x86_64-pc-linux-gnu"

%struct.lua_TValue = type { %union.Value, [1 x i32], i32 }
%union.Value = type { ptr }
%struct.Closure = type { i8, i8, i8, i8, i8, i8, i8, ptr, ptr, %union.anon.0 }
%union.anon.0 = type { %struct.anon }
%struct.anon = type { ptr, ptr, ptr, [1 x %struct.lua_TValue] }
%struct.anon.1 = type { ptr, [1 x %struct.lua_TValue] }

; Function Attrs: mustprogress uwtable
define dso_local void @_Z15lua_getcoverageP9lua_StateiPvPFvS1_PKciiPKimE(ptr noundef %0, i32 noundef %1, ptr noundef %2, ptr noundef %3) #0 {
  %5 = alloca ptr, align 8
  %6 = alloca i32, align 4
  %7 = alloca ptr, align 8
  %8 = alloca ptr, align 8
  %9 = alloca ptr, align 8
  %10 = alloca ptr, align 8
  %11 = alloca i64, align 8
  %12 = alloca i32, align 4
  %13 = alloca ptr, align 8
  store ptr %0, ptr %5, align 8, !tbaa !4
  store i32 %1, ptr %6, align 4, !tbaa !9
  store ptr %2, ptr %7, align 8, !tbaa !93
  store ptr %3, ptr %8, align 8, !tbaa !93
  call void @llvm.lifetime.start.p0(i64 8, ptr %9) #11
  %14 = load ptr, ptr %5, align 8, !tbaa !4
  %15 = load i32, ptr %6, align 4, !tbaa !9
  %16 = call noundef ptr @_Z13luaA_toobjectP9lua_Statei(ptr noundef %14, i32 noundef %15)
  store ptr %16, ptr %9, align 8, !tbaa !53
  call void @llvm.lifetime.start.p0(i64 8, ptr %10) #11
  %17 = load ptr, ptr %9, align 8, !tbaa !53
  %18 = getelementptr inbounds nuw %struct.lua_TValue, ptr %17, i32 0, i32 0
  %19 = load ptr, ptr %18, align 8, !tbaa !37
  %20 = getelementptr inbounds nuw %struct.Closure, ptr %19, i32 0, i32 9
  %21 = getelementptr inbounds nuw %struct.anon.1, ptr %20, i32 0, i32 0
  %22 = load ptr, ptr %21, align 8, !tbaa !37
  store ptr %22, ptr %10, align 8, !tbaa !27
  call void @llvm.lifetime.start.p0(i64 8, ptr %11) #11
  %23 = load ptr, ptr %10, align 8, !tbaa !27
  %24 = call noundef i32 @_ZL10getmaxlineP5Proto(ptr noundef %23)
  %25 = add nsw i32 %24, 1
  %26 = sext i32 %25 to i64
  store i64 %26, ptr %11, align 8, !tbaa !111
  %27 = load i64, ptr %11, align 8, !tbaa !111
  %28 = icmp eq i64 %27, 0
  br i1 %28, label %29, label %30

29:                                               ; preds = %4
  store i32 1, ptr %12, align 4
  br label %52

30:                                               ; preds = %4
  call void @llvm.lifetime.start.p0(i64 8, ptr %13) #11
  %31 = load ptr, ptr %5, align 8, !tbaa !4
  %32 = load i64, ptr %11, align 8, !tbaa !111
  %33 = icmp ule i64 %32, 4611686018427387903
  br i1 %33, label %34, label %37

34:                                               ; preds = %30
  %35 = load i64, ptr %11, align 8, !tbaa !111
  %36 = mul i64 %35, 4
  br label %40

37:                                               ; preds = %30
  %38 = load ptr, ptr %5, align 8, !tbaa !4
  call void @_Z11luaM_toobigP9lua_State(ptr noundef %38) #12
  unreachable

39:                                               ; No predecessors!
  br label %40

40:                                               ; preds = %39, %34
  %41 = phi i64 [ %36, %34 ], [ -1, %39 ]
  %42 = call noundef ptr @_Z9luaM_new_P9lua_Statemh(ptr noundef %31, i64 noundef %41, i8 noundef zeroext 0)
  store ptr %42, ptr %13, align 8, !tbaa !112
  %43 = load ptr, ptr %10, align 8, !tbaa !27
  %44 = load ptr, ptr %13, align 8, !tbaa !112
  %45 = load i64, ptr %11, align 8, !tbaa !111
  %46 = load ptr, ptr %7, align 8, !tbaa !93
  %47 = load ptr, ptr %8, align 8, !tbaa !93
  call void @_ZL11getcoverageP5ProtoiPimPvPFvS2_PKciiPKimE(ptr noundef %43, i32 noundef 0, ptr noundef %44, i64 noundef %45, ptr noundef %46, ptr noundef %47)
  %48 = load ptr, ptr %5, align 8, !tbaa !4
  %49 = load ptr, ptr %13, align 8, !tbaa !112
  %50 = load i64, ptr %11, align 8, !tbaa !111
  %51 = mul i64 %50, 4
  call void @_Z10luaM_free_P9lua_StatePvmh(ptr noundef %48, ptr noundef %49, i64 noundef %51, i8 noundef zeroext 0)
  call void @llvm.lifetime.end.p0(i64 8, ptr %13) #11
  store i32 0, ptr %12, align 4
  br label %52

52:                                               ; preds = %40, %29
  call void @llvm.lifetime.end.p0(i64 8, ptr %11) #11
  call void @llvm.lifetime.end.p0(i64 8, ptr %10) #11
  call void @llvm.lifetime.end.p0(i64 8, ptr %9) #11
  %53 = load i32, ptr %12, align 4
  switch i32 %53, label %55 [
    i32 0, label %54
    i32 1, label %54
  ]

54:                                               ; preds = %52, %52
  ret void

55:                                               ; preds = %52
  unreachable
}