; Function Attrs: mustprogress uwtable
define dso_local void @_Z15lua_getcoverageP9lua_StateiPvPFvS1_PKciiPKimE(ptr noundef %0, i32 noundef %1, ptr noundef %2, ptr noundef readonly captures(none) %3) local_unnamed_addr #0 {
  %5 = tail call noundef ptr @_Z13luaA_toobjectP9lua_Statei(ptr noundef %0, i32 noundef %1)
  %6 = load ptr, ptr %5, align 8, !tbaa !26
  %7 = getelementptr inbounds nuw i8, ptr %6, i64 24
  %8 = load ptr, ptr %7, align 8, !tbaa !26
  %9 = tail call fastcc noundef i32 @_ZL10getmaxlineP5Proto(ptr noundef %8)
  %10 = add nsw i32 %9, 1
  %11 = icmp eq i32 %10, 0
  br i1 %11, label %16, label %12

12:                                               ; preds = %4
  %13 = zext nneg i32 %10 to i64
  %14 = shl nuw nsw i64 %13, 2
  %15 = tail call noundef ptr @_Z9luaM_new_P9lua_Statemh(ptr noundef %0, i64 noundef %14, i8 noundef zeroext 0)
  tail call fastcc void @_ZL11getcoverageP5ProtoiPimPvPFvS2_PKciiPKimE(ptr noundef %8, i32 noundef 0, ptr noundef %15, i64 noundef %13, ptr noundef %2, ptr noundef %3)
  tail call void @_Z10luaM_free_P9lua_StatePvmh(ptr noundef %0, ptr noundef %15, i64 noundef %14, i8 noundef zeroext 0)
  br label %16

16:                                               ; preds = %4, %12
  ret void
}